target datalayout = "e-m:e-p270:32:32-p271:32:32-p272:64:64-i64:64-i128:128-f80:128-n8:16:32:64-S128"
target triple = "x86_64-pc-linux-gnu"

%struct.record_layer_st = type { ptr, ptr, ptr, ptr, ptr, ptr, ptr, ptr, i64, i32, i64, [4 x i8], i64, i64, i8, ptr, i32, ptr, ptr, ptr, i64, i64, i64, i64, [32 x %struct.tls_record_st] }
%struct.tls_record_st = type { ptr, i32, i8, ptr, ptr, i64, i64, i16, [8 x i8] }
%struct.dtls_record_layer_st = type { i16, i16, ptr }

@.str = private unnamed_addr constant [37 x i8] c"../openssl/ssl/record/rec_layer_d1.c\00", align 1

; Function Attrs: nounwind uwtable
define void @DTLS_RECORD_LAYER_free(ptr noundef %0) #0 {
  %2 = alloca ptr, align 8
  store ptr %0, ptr %2, align 8, !tbaa !3
  %3 = load ptr, ptr %2, align 8, !tbaa !3
  %4 = getelementptr inbounds nuw %struct.record_layer_st, ptr %3, i32 0, i32 17
  %5 = load ptr, ptr %4, align 8, !tbaa !10
  %6 = icmp eq ptr %5, null
  br i1 %6, label %7, label %8

7:                                                ; preds = %1
  br label %20

8:                                                ; preds = %1
  %9 = load ptr, ptr %2, align 8, !tbaa !3
  call void @DTLS_RECORD_LAYER_clear(ptr noundef %9)
  %10 = load ptr, ptr %2, align 8, !tbaa !3
  %11 = getelementptr inbounds nuw %struct.record_layer_st, ptr %10, i32 0, i32 17
  %12 = load ptr, ptr %11, align 8, !tbaa !10
  %13 = getelementptr inbounds nuw %struct.dtls_record_layer_st, ptr %12, i32 0, i32 2
  %14 = load ptr, ptr %13, align 8, !tbaa !19
  call void @pqueue_free(ptr noundef %14)
  %15 = load ptr, ptr %2, align 8, !tbaa !3
  %16 = getelementptr inbounds nuw %struct.record_layer_st, ptr %15, i32 0, i32 17
  %17 = load ptr, ptr %16, align 8, !tbaa !10
  call void @CRYPTO_free(ptr noundef %17, ptr noundef @.str, i32 noundef 47)
  %18 = load ptr, ptr %2, align 8, !tbaa !3
  %19 = getelementptr inbounds nuw %struct.record_layer_st, ptr %18, i32 0, i32 17
  store ptr null, ptr %19, align 8, !tbaa !10
  br label %20

20:                                               ; preds = %8, %7
  ret void
}