; Function Attrs: nounwind uwtable
define void @DTLS_RECORD_LAYER_free(ptr noundef captures(none) %0) local_unnamed_addr #0 {
  %2 = getelementptr inbounds nuw i8, ptr %0, i64 136
  %3 = load ptr, ptr %2, align 8, !tbaa !3
  %4 = icmp eq ptr %3, null
  br i1 %4, label %10, label %5

5:                                                ; preds = %1
  tail call void @DTLS_RECORD_LAYER_clear(ptr noundef nonnull %0)
  %6 = load ptr, ptr %2, align 8, !tbaa !3
  %7 = getelementptr inbounds nuw i8, ptr %6, i64 8
  %8 = load ptr, ptr %7, align 8, !tbaa !16
  tail call void @pqueue_free(ptr noundef %8) #7
  %9 = load ptr, ptr %2, align 8, !tbaa !3
  tail call void @CRYPTO_free(ptr noundef %9, ptr noundef nonnull @.str, i32 noundef 47) #7
  store ptr null, ptr %2, align 8, !tbaa !3
  br label %10

10:                                               ; preds = %1, %5
  ret void
}